target datalayout = "e-m:e-p270:32:32-p271:32:32-p272:64:64-i64:64-i128:128-f80:128-n8:16:32:64-S128"
target triple = "x86_64-pc-linux-gnu"

%struct._lv_tree_node_t = type { ptr, ptr, i32, i32, ptr }
%struct._lv_tree_class_t = type { ptr, i32, ptr, ptr }

; Function Attrs: inlinehint nounwind uwtable
define internal void @lv_memzero(ptr noundef %0, i64 noundef %1) #3 {
  %3 = alloca ptr, align 8
  %4 = alloca i64, align 8
  store ptr %0, ptr %3, align 8, !tbaa !3
  store i64 %1, ptr %4, align 8, !tbaa !24
  %5 = load ptr, ptr %3, align 8, !tbaa !3
  %6 = load i64, ptr %4, align 8, !tbaa !24
  call void @lv_memset(ptr noundef %5, i8 noundef zeroext 0, i64 noundef %6)
  ret void
}

; Function Attrs: nounwind uwtable
define internal i32 @get_instance_size(ptr noundef %0) #0 {
  %2 = alloca ptr, align 8
  %3 = alloca ptr, align 8
  store ptr %0, ptr %2, align 8, !tbaa !3
  call void @llvm.lifetime.start.p0(i64 8, ptr %3) #4
  %4 = load ptr, ptr %2, align 8, !tbaa !3
  store ptr %4, ptr %3, align 8, !tbaa !3
  br label %5

5:                                                ; preds = %15, %1
  %6 = load ptr, ptr %3, align 8, !tbaa !3
  %7 = icmp ne ptr %6, null
  br i1 %7, label %8, label %13

8:                                                ; preds = %5
  %9 = load ptr, ptr %3, align 8, !tbaa !3
  %10 = getelementptr inbounds nuw %struct._lv_tree_class_t, ptr %9, i32 0, i32 1
  %11 = load i32, ptr %10, align 8, !tbaa !22
  %12 = icmp eq i32 %11, 0
  br label %13

13:                                               ; preds = %8, %5
  %14 = phi i1 [ false, %5 ], [ %12, %8 ]
  br i1 %14, label %15, label %19

15:                                               ; preds = %13
  %16 = load ptr, ptr %3, align 8, !tbaa !3
  %17 = getelementptr inbounds nuw %struct._lv_tree_class_t, ptr %16, i32 0, i32 0
  %18 = load ptr, ptr %17, align 8, !tbaa !15
  store ptr %18, ptr %3, align 8, !tbaa !3
  br label %5, !llvm.loop !23

19:                                               ; preds = %13
  %20 = load ptr, ptr %3, align 8, !tbaa !3
  %21 = getelementptr inbounds nuw %struct._lv_tree_class_t, ptr %20, i32 0, i32 1
  %22 = load i32, ptr %21, align 8, !tbaa !22
  call void @llvm.lifetime.end.p0(i64 8, ptr %3) #4
  ret i32 %22
}

; Function Attrs: nounwind uwtable
define internal ptr @_lv_tree_class_create_node(ptr noundef %0, ptr noundef %1) #0 {
  %3 = alloca ptr, align 8
  %4 = alloca ptr, align 8
  %5 = alloca ptr, align 8
  %6 = alloca i32, align 4
  %7 = alloca ptr, align 8
  %8 = alloca i32, align 4
  store ptr %0, ptr %4, align 8, !tbaa !3
  store ptr %1, ptr %5, align 8, !tbaa !3
  call void @llvm.lifetime.start.p0(i64 4, ptr %6) #4
  %9 = load ptr, ptr %4, align 8, !tbaa !3
  %10 = call i32 @get_instance_size(ptr noundef %9)
  store i32 %10, ptr %6, align 4, !tbaa !10
  call void @llvm.lifetime.start.p0(i64 8, ptr %7) #4
  %11 = load i32, ptr %6, align 4, !tbaa !10
  %12 = zext i32 %11 to i64
  %13 = call ptr @lv_malloc(i64 noundef %12)
  store ptr %13, ptr %7, align 8, !tbaa !3
  %14 = load ptr, ptr %7, align 8, !tbaa !3
  %15 = icmp eq ptr %14, null
  br i1 %15, label %16, label %17

16:                                               ; preds = %2
  store ptr null, ptr %3, align 8
  store i32 1, ptr %8, align 4
  br label %80

17:                                               ; preds = %2
  %18 = load ptr, ptr %7, align 8, !tbaa !3
  %19 = load i32, ptr %6, align 4, !tbaa !10
  %20 = zext i32 %19 to i64
  call void @lv_memzero(ptr noundef %18, i64 noundef %20)
  %21 = load ptr, ptr %4, align 8, !tbaa !3
  %22 = load ptr, ptr %7, align 8, !tbaa !3
  %23 = getelementptr inbounds nuw %struct._lv_tree_node_t, ptr %22, i32 0, i32 4
  store ptr %21, ptr %23, align 8, !tbaa !7
  %24 = load ptr, ptr %5, align 8, !tbaa !3
  %25 = load ptr, ptr %7, align 8, !tbaa !3
  %26 = getelementptr inbounds nuw %struct._lv_tree_node_t, ptr %25, i32 0, i32 0
  store ptr %24, ptr %26, align 8, !tbaa !11
  %27 = load ptr, ptr %7, align 8, !tbaa !3
  %28 = getelementptr inbounds nuw %struct._lv_tree_node_t, ptr %27, i32 0, i32 3
  store i32 4, ptr %28, align 4, !tbaa !12
  %29 = load ptr, ptr %7, align 8, !tbaa !3
  %30 = getelementptr inbounds nuw %struct._lv_tree_node_t, ptr %29, i32 0, i32 3
  %31 = load i32, ptr %30, align 4, !tbaa !12
  %32 = zext i32 %31 to i64
  %33 = mul i64 8, %32
  %34 = call ptr @lv_malloc(i64 noundef %33)
  %35 = load ptr, ptr %7, align 8, !tbaa !3
  %36 = getelementptr inbounds nuw %struct._lv_tree_node_t, ptr %35, i32 0, i32 1
  store ptr %34, ptr %36, align 8, !tbaa !13
  %37 = load ptr, ptr %5, align 8, !tbaa !3
  %38 = icmp ne ptr %37, null
  br i1 %38, label %39, label %78

39:                                               ; preds = %17
  %40 = load ptr, ptr %5, align 8, !tbaa !3
  %41 = getelementptr inbounds nuw %struct._lv_tree_node_t, ptr %40, i32 0, i32 2
  %42 = load i32, ptr %41, align 8, !tbaa !14
  %43 = add i32 %42, 1
  store i32 %43, ptr %41, align 8, !tbaa !14
  %44 = load ptr, ptr %5, align 8, !tbaa !3
  %45 = getelementptr inbounds nuw %struct._lv_tree_node_t, ptr %44, i32 0, i32 2
  %46 = load i32, ptr %45, align 8, !tbaa !14
  %47 = load ptr, ptr %5, align 8, !tbaa !3
  %48 = getelementptr inbounds nuw %struct._lv_tree_node_t, ptr %47, i32 0, i32 3
  %49 = load i32, ptr %48, align 4, !tbaa !12
  %50 = icmp eq i32 %46, %49
  br i1 %50, label %51, label %67

51:                                               ; preds = %39
  %52 = load ptr, ptr %5, align 8, !tbaa !3
  %53 = getelementptr inbounds nuw %struct._lv_tree_node_t, ptr %52, i32 0, i32 3
  %54 = load i32, ptr %53, align 4, !tbaa !12
  %55 = shl i32 %54, 1
  store i32 %55, ptr %53, align 4, !tbaa !12
  %56 = load ptr, ptr %5, align 8, !tbaa !3
  %57 = getelementptr inbounds nuw %struct._lv_tree_node_t, ptr %56, i32 0, i32 1
  %58 = load ptr, ptr %57, align 8, !tbaa !13
  %59 = load ptr, ptr %5, align 8, !tbaa !3
  %60 = getelementptr inbounds nuw %struct._lv_tree_node_t, ptr %59, i32 0, i32 3
  %61 = load i32, ptr %60, align 4, !tbaa !12
  %62 = zext i32 %61 to i64
  %63 = mul i64 8, %62
  %64 = call ptr @lv_realloc(ptr noundef %58, i64 noundef %63)
  %65 = load ptr, ptr %5, align 8, !tbaa !3
  %66 = getelementptr inbounds nuw %struct._lv_tree_node_t, ptr %65, i32 0, i32 1
  store ptr %64, ptr %66, align 8, !tbaa !13
  br label %67

67:                                               ; preds = %51, %39
  %68 = load ptr, ptr %7, align 8, !tbaa !3
  %69 = load ptr, ptr %5, align 8, !tbaa !3
  %70 = getelementptr inbounds nuw %struct._lv_tree_node_t, ptr %69, i32 0, i32 1
  %71 = load ptr, ptr %70, align 8, !tbaa !13
  %72 = load ptr, ptr %5, align 8, !tbaa !3
  %73 = getelementptr inbounds nuw %struct._lv_tree_node_t, ptr %72, i32 0, i32 2
  %74 = load i32, ptr %73, align 8, !tbaa !14
  %75 = sub i32 %74, 1
  %76 = zext i32 %75 to i64
  %77 = getelementptr inbounds nuw ptr, ptr %71, i64 %76
  store ptr %68, ptr %77, align 8, !tbaa !3
  br label %78

78:                                               ; preds = %67, %17
  %79 = load ptr, ptr %7, align 8, !tbaa !3
  store ptr %79, ptr %3, align 8
  store i32 1, ptr %8, align 4
  br label %80

80:                                               ; preds = %78, %16
  call void @llvm.lifetime.end.p0(i64 8, ptr %7) #4
  call void @llvm.lifetime.end.p0(i64 4, ptr %6) #4
  %81 = load ptr, ptr %3, align 8
  ret ptr %81
}

; Function Attrs: nounwind uwtable
define ptr @lv_tree_node_create(ptr noundef %0, ptr noundef %1) #0 {
  %3 = alloca ptr, align 8
  %4 = alloca ptr, align 8
  %5 = alloca ptr, align 8
  store ptr %0, ptr %3, align 8, !tbaa !3
  store ptr %1, ptr %4, align 8, !tbaa !3
  call void @llvm.lifetime.start.p0(i64 8, ptr %5) #4
  %6 = load ptr, ptr %3, align 8, !tbaa !3
  %7 = load ptr, ptr %4, align 8, !tbaa !3
  %8 = call ptr @_lv_tree_class_create_node(ptr noundef %6, ptr noundef %7)
  store ptr %8, ptr %5, align 8, !tbaa !3
  br label %9

9:                                                ; preds = %2
  %10 = load ptr, ptr %5, align 8, !tbaa !3
  %11 = icmp ne ptr %10, null
  br i1 %11, label %18, label %12

12:                                               ; preds = %9
  br label %13

13:                                               ; preds = %12
  br label %14

14:                                               ; preds = %13
  br label %15

15:                                               ; preds = %14
  br label %16

16:                                               ; preds = %17, %15
  br label %17

17:                                               ; preds = %16
  br label %16

18:                                               ; preds = %9
  br label %19

19:                                               ; preds = %18
  br label %20

20:                                               ; preds = %19
  %21 = load ptr, ptr %5, align 8, !tbaa !3
  %22 = getelementptr inbounds nuw %struct._lv_tree_node_t, ptr %21, i32 0, i32 4
  %23 = load ptr, ptr %22, align 8, !tbaa !7
  %24 = load ptr, ptr %5, align 8, !tbaa !3
  call void @_lv_tree_node_construct(ptr noundef %23, ptr noundef %24)
  %25 = load ptr, ptr %5, align 8, !tbaa !3
  call void @llvm.lifetime.end.p0(i64 8, ptr %5) #4
  ret ptr %25
}