; Function Attrs: nounwind uwtable
define nonnull ptr @lv_tree_node_create(ptr noundef %0, ptr noundef %1) local_unnamed_addr #0 {
  %.not.i27.i = icmp ne ptr %0, null
  tail call void @llvm.assume(i1 %.not.i27.i)
  %3 = getelementptr inbounds nuw i8, ptr %0, i64 8
  %4 = load i32, ptr %3, align 8, !tbaa !3
  %5 = icmp eq i32 %4, 0
  br i1 %5, label %.lr.ph.i.i, label %get_instance_size.exit.i

.lr.ph.i.i:                                       ; preds = %2, %.lr.ph.i.i
  %.sink.i28.i = phi ptr [ %6, %.lr.ph.i.i ], [ %0, %2 ]
  %6 = load ptr, ptr %.sink.i28.i, align 8, !tbaa !9, !nonnull !10, !noundef !10
  %7 = getelementptr inbounds nuw i8, ptr %6, i64 8
  %8 = load i32, ptr %7, align 8, !tbaa !3
  %9 = icmp eq i32 %8, 0
  br i1 %9, label %.lr.ph.i.i, label %get_instance_size.exit.i

get_instance_size.exit.i:                         ; preds = %.lr.ph.i.i, %2
  %.lcssa.i = phi i32 [ %4, %2 ], [ %8, %.lr.ph.i.i ]
  %10 = zext i32 %.lcssa.i to i64
  %11 = tail call ptr @lv_malloc(i64 noundef %10) #3
  %12 = icmp eq ptr %11, null
  br i1 %12, label %_lv_tree_class_create_node.exit, label %13

13:                                               ; preds = %get_instance_size.exit.i
  tail call void @lv_memset(ptr noundef nonnull %11, i8 noundef zeroext 0, i64 noundef range(i64 0, 4294967296) %10) #3
  %14 = getelementptr inbounds nuw i8, ptr %11, i64 24
  store ptr %0, ptr %14, align 8, !tbaa !11
  store ptr %1, ptr %11, align 8, !tbaa !13
  %15 = getelementptr inbounds nuw i8, ptr %11, i64 20
  store i32 4, ptr %15, align 4, !tbaa !14
  %16 = tail call ptr @lv_malloc(i64 noundef 32) #3
  %17 = getelementptr inbounds nuw i8, ptr %11, i64 8
  store ptr %16, ptr %17, align 8, !tbaa !15
  %.not.i = icmp eq ptr %1, null
  br i1 %.not.i, label %38, label %18

18:                                               ; preds = %13
  %19 = getelementptr inbounds nuw i8, ptr %1, i64 16
  %20 = load i32, ptr %19, align 8, !tbaa !16
  %21 = add i32 %20, 1
  store i32 %21, ptr %19, align 8, !tbaa !16
  %22 = getelementptr inbounds nuw i8, ptr %1, i64 20
  %23 = load i32, ptr %22, align 4, !tbaa !14
  %24 = icmp eq i32 %21, %23
  br i1 %24, label %25, label %._crit_edge.i

._crit_edge.i:                                    ; preds = %18
  %.phi.trans.insert.i = getelementptr inbounds nuw i8, ptr %1, i64 8
  %.pre.i = load ptr, ptr %.phi.trans.insert.i, align 8, !tbaa !15
  br label %33

25:                                               ; preds = %18
  %26 = shl i32 %21, 1
  store i32 %26, ptr %22, align 4, !tbaa !14
  %27 = getelementptr inbounds nuw i8, ptr %1, i64 8
  %28 = load ptr, ptr %27, align 8, !tbaa !15
  %29 = zext i32 %26 to i64
  %30 = shl nuw nsw i64 %29, 3
  %31 = tail call ptr @lv_realloc(ptr noundef %28, i64 noundef %30) #3
  store ptr %31, ptr %27, align 8, !tbaa !15
  %.pre30.i = load i32, ptr %19, align 8, !tbaa !16
  %32 = add i32 %.pre30.i, -1
  br label %33

33:                                               ; preds = %25, %._crit_edge.i
  %34 = phi i32 [ %20, %._crit_edge.i ], [ %32, %25 ]
  %35 = phi ptr [ %.pre.i, %._crit_edge.i ], [ %31, %25 ]
  %36 = zext i32 %34 to i64
  %37 = getelementptr inbounds nuw ptr, ptr %35, i64 %36
  store ptr %11, ptr %37, align 8, !tbaa !17
  br label %38

_lv_tree_class_create_node.exit:                  ; preds = %get_instance_size.exit.i, %_lv_tree_class_create_node.exit
  br label %_lv_tree_class_create_node.exit

38:                                               ; preds = %13, %33
  %39 = load ptr, ptr %14, align 8, !tbaa !11
  tail call fastcc void @_lv_tree_node_construct(ptr noundef %39, ptr noundef %11)
  ret ptr %11
}